target datalayout = "e-m:e-p270:32:32-p271:32:32-p272:64:64-i64:64-i128:128-f80:128-n8:16:32:64-S128"
target triple = "x86_64-pc-linux-gnu"

%struct.CFF_IndexRec_ = type { ptr, i64, i32, i32, i8, i64, i64, ptr, ptr }
%struct.FT_StreamRec_ = type { ptr, i64, i64, %union.FT_StreamDesc_, %union.FT_StreamDesc_, ptr, ptr, ptr, ptr, ptr }
%union.FT_StreamDesc_ = type { i64 }

; Function Attrs: nounwind uwtable
define internal i64 @cff_index_read_offset(ptr noundef %0, ptr noundef %1) #0 {
  %3 = alloca ptr, align 8
  %4 = alloca ptr, align 8
  %5 = alloca i32, align 4
  %6 = alloca ptr, align 8
  %7 = alloca [4 x i8], align 1
  %8 = alloca i64, align 8
  %9 = alloca i32, align 4
  store ptr %0, ptr %3, align 8
  store ptr %1, ptr %4, align 8
  %10 = load ptr, ptr %3, align 8
  %11 = getelementptr inbounds %struct.CFF_IndexRec_, ptr %10, i32 0, i32 0
  %12 = load ptr, ptr %11, align 8
  store ptr %12, ptr %6, align 8
  store i64 0, ptr %8, align 8
  %13 = load ptr, ptr %6, align 8
  %14 = getelementptr inbounds [4 x i8], ptr %7, i64 0, i64 0
  %15 = load ptr, ptr %3, align 8
  %16 = getelementptr inbounds %struct.CFF_IndexRec_, ptr %15, i32 0, i32 4
  %17 = load i8, ptr %16, align 8
  %18 = zext i8 %17 to i64
  %19 = call i32 @FT_Stream_Read(ptr noundef %13, ptr noundef %14, i64 noundef %18)
  store i32 %19, ptr %5, align 4
  %20 = icmp ne i32 %19, 0
  br i1 %20, label %42, label %21

21:                                               ; preds = %2
  store i32 0, ptr %9, align 4
  br label %22

22:                                               ; preds = %38, %21
  %23 = load i32, ptr %9, align 4
  %24 = load ptr, ptr %3, align 8
  %25 = getelementptr inbounds %struct.CFF_IndexRec_, ptr %24, i32 0, i32 4
  %26 = load i8, ptr %25, align 8
  %27 = zext i8 %26 to i32
  %28 = icmp slt i32 %23, %27
  br i1 %28, label %29, label %41

29:                                               ; preds = %22
  %30 = load i64, ptr %8, align 8
  %31 = shl i64 %30, 8
  %32 = load i32, ptr %9, align 4
  %33 = sext i32 %32 to i64
  %34 = getelementptr inbounds [4 x i8], ptr %7, i64 0, i64 %33
  %35 = load i8, ptr %34, align 1
  %36 = zext i8 %35 to i64
  %37 = or i64 %31, %36
  store i64 %37, ptr %8, align 8
  br label %38

38:                                               ; preds = %29
  %39 = load i32, ptr %9, align 4
  %40 = add nsw i32 %39, 1
  store i32 %40, ptr %9, align 4
  br label %22, !llvm.loop !35

41:                                               ; preds = %22
  br label %42

42:                                               ; preds = %41, %2
  %43 = load i32, ptr %5, align 4
  %44 = load ptr, ptr %4, align 8
  store i32 %43, ptr %44, align 4
  %45 = load i64, ptr %8, align 8
  ret i64 %45
}

; Function Attrs: nounwind uwtable
define internal i32 @cff_index_access_element(ptr noundef %0, i32 noundef %1, ptr noundef %2, ptr noundef %3) #0 {
  %5 = alloca ptr, align 8
  %6 = alloca i32, align 4
  %7 = alloca ptr, align 8
  %8 = alloca ptr, align 8
  %9 = alloca i32, align 4
  %10 = alloca ptr, align 8
  %11 = alloca i64, align 8
  %12 = alloca i64, align 8
  %13 = alloca i64, align 8
  store ptr %0, ptr %5, align 8
  store i32 %1, ptr %6, align 4
  store ptr %2, ptr %7, align 8
  store ptr %3, ptr %8, align 8
  store i32 0, ptr %9, align 4
  %14 = load ptr, ptr %5, align 8
  %15 = icmp ne ptr %14, null
  br i1 %15, label %16, label %192

16:                                               ; preds = %4
  %17 = load ptr, ptr %5, align 8
  %18 = getelementptr inbounds %struct.CFF_IndexRec_, ptr %17, i32 0, i32 3
  %19 = load i32, ptr %18, align 4
  %20 = load i32, ptr %6, align 4
  %21 = icmp ugt i32 %19, %20
  br i1 %21, label %22, label %192

22:                                               ; preds = %16
  %23 = load ptr, ptr %5, align 8
  %24 = getelementptr inbounds %struct.CFF_IndexRec_, ptr %23, i32 0, i32 0
  %25 = load ptr, ptr %24, align 8
  store ptr %25, ptr %10, align 8
  store i64 0, ptr %12, align 8
  %26 = load ptr, ptr %5, align 8
  %27 = getelementptr inbounds %struct.CFF_IndexRec_, ptr %26, i32 0, i32 7
  %28 = load ptr, ptr %27, align 8
  %29 = icmp ne ptr %28, null
  br i1 %29, label %80, label %30

30:                                               ; preds = %22
  %31 = load i32, ptr %6, align 4
  %32 = load ptr, ptr %5, align 8
  %33 = getelementptr inbounds %struct.CFF_IndexRec_, ptr %32, i32 0, i32 4
  %34 = load i8, ptr %33, align 8
  %35 = zext i8 %34 to i32
  %36 = mul i32 %31, %35
  %37 = zext i32 %36 to i64
  store i64 %37, ptr %13, align 8
  %38 = load ptr, ptr %10, align 8
  %39 = load ptr, ptr %5, align 8
  %40 = getelementptr inbounds %struct.CFF_IndexRec_, ptr %39, i32 0, i32 1
  %41 = load i64, ptr %40, align 8
  %42 = load ptr, ptr %5, align 8
  %43 = getelementptr inbounds %struct.CFF_IndexRec_, ptr %42, i32 0, i32 2
  %44 = load i32, ptr %43, align 8
  %45 = zext i32 %44 to i64
  %46 = add i64 %41, %45
  %47 = load i64, ptr %13, align 8
  %48 = add i64 %46, %47
  %49 = call i32 @FT_Stream_Seek(ptr noundef %38, i64 noundef %48)
  store i32 %49, ptr %9, align 4
  %50 = icmp ne i32 %49, 0
  br i1 %50, label %51, label %52

51:                                               ; preds = %30
  br label %194

52:                                               ; preds = %30
  %53 = load ptr, ptr %5, align 8
  %54 = call i64 @cff_index_read_offset(ptr noundef %53, ptr noundef %9)
  store i64 %54, ptr %11, align 8
  %55 = load i32, ptr %9, align 4
  %56 = icmp ne i32 %55, 0
  br i1 %56, label %57, label %58

57:                                               ; preds = %52
  br label %194

58:                                               ; preds = %52
  %59 = load i64, ptr %11, align 8
  %60 = icmp ne i64 %59, 0
  br i1 %60, label %61, label %79

61:                                               ; preds = %58
  br label %62

62:                                               ; preds = %76, %61
  %63 = load i32, ptr %6, align 4
  %64 = add i32 %63, 1
  store i32 %64, ptr %6, align 4
  %65 = load ptr, ptr %5, align 8
  %66 = call i64 @cff_index_read_offset(ptr noundef %65, ptr noundef %9)
  store i64 %66, ptr %12, align 8
  br label %67

67:                                               ; preds = %62
  %68 = load i64, ptr %12, align 8
  %69 = icmp eq i64 %68, 0
  br i1 %69, label %70, label %76

70:                                               ; preds = %67
  %71 = load i32, ptr %6, align 4
  %72 = load ptr, ptr %5, align 8
  %73 = getelementptr inbounds %struct.CFF_IndexRec_, ptr %72, i32 0, i32 3
  %74 = load i32, ptr %73, align 4
  %75 = icmp ult i32 %71, %74
  br label %76

76:                                               ; preds = %70, %67
  %77 = phi i1 [ false, %67 ], [ %75, %70 ]
  br i1 %77, label %62, label %78, !llvm.loop !33

78:                                               ; preds = %76
  br label %79

79:                                               ; preds = %78, %58
  br label %114

80:                                               ; preds = %22
  %81 = load ptr, ptr %5, align 8
  %82 = getelementptr inbounds %struct.CFF_IndexRec_, ptr %81, i32 0, i32 7
  %83 = load ptr, ptr %82, align 8
  %84 = load i32, ptr %6, align 4
  %85 = zext i32 %84 to i64
  %86 = getelementptr inbounds i64, ptr %83, i64 %85
  %87 = load i64, ptr %86, align 8
  store i64 %87, ptr %11, align 8
  %88 = load i64, ptr %11, align 8
  %89 = icmp ne i64 %88, 0
  br i1 %89, label %90, label %113

90:                                               ; preds = %80
  br label %91

91:                                               ; preds = %110, %90
  %92 = load i32, ptr %6, align 4
  %93 = add i32 %92, 1
  store i32 %93, ptr %6, align 4
  %94 = load ptr, ptr %5, align 8
  %95 = getelementptr inbounds %struct.CFF_IndexRec_, ptr %94, i32 0, i32 7
  %96 = load ptr, ptr %95, align 8
  %97 = load i32, ptr %6, align 4
  %98 = zext i32 %97 to i64
  %99 = getelementptr inbounds i64, ptr %96, i64 %98
  %100 = load i64, ptr %99, align 8
  store i64 %100, ptr %12, align 8
  br label %101

101:                                              ; preds = %91
  %102 = load i64, ptr %12, align 8
  %103 = icmp eq i64 %102, 0
  br i1 %103, label %104, label %110

104:                                              ; preds = %101
  %105 = load i32, ptr %6, align 4
  %106 = load ptr, ptr %5, align 8
  %107 = getelementptr inbounds %struct.CFF_IndexRec_, ptr %106, i32 0, i32 3
  %108 = load i32, ptr %107, align 4
  %109 = icmp ult i32 %105, %108
  br label %110

110:                                              ; preds = %104, %101
  %111 = phi i1 [ false, %101 ], [ %109, %104 ]
  br i1 %111, label %91, label %112, !llvm.loop !34

112:                                              ; preds = %110
  br label %113

113:                                              ; preds = %112, %80
  br label %114

114:                                              ; preds = %113, %79
  %115 = load i64, ptr %12, align 8
  %116 = load ptr, ptr %10, align 8
  %117 = getelementptr inbounds %struct.FT_StreamRec_, ptr %116, i32 0, i32 1
  %118 = load i64, ptr %117, align 8
  %119 = add i64 %118, 1
  %120 = icmp ugt i64 %115, %119
  br i1 %120, label %132, label %121

121:                                              ; preds = %114
  %122 = load ptr, ptr %5, align 8
  %123 = getelementptr inbounds %struct.CFF_IndexRec_, ptr %122, i32 0, i32 5
  %124 = load i64, ptr %123, align 8
  %125 = load ptr, ptr %10, align 8
  %126 = getelementptr inbounds %struct.FT_StreamRec_, ptr %125, i32 0, i32 1
  %127 = load i64, ptr %126, align 8
  %128 = load i64, ptr %12, align 8
  %129 = sub i64 %127, %128
  %130 = add i64 %129, 1
  %131 = icmp ugt i64 %124, %130
  br i1 %131, label %132, label %143

132:                                              ; preds = %121, %114
  br label %133

133:                                              ; preds = %132
  br label %134

134:                                              ; preds = %133
  %135 = load ptr, ptr %10, align 8
  %136 = getelementptr inbounds %struct.FT_StreamRec_, ptr %135, i32 0, i32 1
  %137 = load i64, ptr %136, align 8
  %138 = load ptr, ptr %5, align 8
  %139 = getelementptr inbounds %struct.CFF_IndexRec_, ptr %138, i32 0, i32 5
  %140 = load i64, ptr %139, align 8
  %141 = sub i64 %137, %140
  %142 = add i64 %141, 1
  store i64 %142, ptr %12, align 8
  br label %143

143:                                              ; preds = %134, %121
  %144 = load i64, ptr %11, align 8
  %145 = icmp ne i64 %144, 0
  br i1 %145, label %146, label %188

146:                                              ; preds = %143
  %147 = load i64, ptr %12, align 8
  %148 = load i64, ptr %11, align 8
  %149 = icmp ugt i64 %147, %148
  br i1 %149, label %150, label %188

150:                                              ; preds = %146
  %151 = load i64, ptr %12, align 8
  %152 = load i64, ptr %11, align 8
  %153 = sub i64 %151, %152
  %154 = load ptr, ptr %8, align 8
  store i64 %153, ptr %154, align 8
  %155 = load ptr, ptr %5, align 8
  %156 = getelementptr inbounds %struct.CFF_IndexRec_, ptr %155, i32 0, i32 8
  %157 = load ptr, ptr %156, align 8
  %158 = icmp ne ptr %157, null
  br i1 %158, label %159, label %167

159:                                              ; preds = %150
  %160 = load ptr, ptr %5, align 8
  %161 = getelementptr inbounds %struct.CFF_IndexRec_, ptr %160, i32 0, i32 8
  %162 = load ptr, ptr %161, align 8
  %163 = load i64, ptr %11, align 8
  %164 = getelementptr inbounds i8, ptr %162, i64 %163
  %165 = getelementptr inbounds i8, ptr %164, i64 -1
  %166 = load ptr, ptr %7, align 8
  store ptr %165, ptr %166, align 8
  br label %187

167:                                              ; preds = %150
  %168 = load ptr, ptr %10, align 8
  %169 = load ptr, ptr %5, align 8
  %170 = getelementptr inbounds %struct.CFF_IndexRec_, ptr %169, i32 0, i32 5
  %171 = load i64, ptr %170, align 8
  %172 = load i64, ptr %11, align 8
  %173 = add i64 %171, %172
  %174 = sub i64 %173, 1
  %175 = call i32 @FT_Stream_Seek(ptr noundef %168, i64 noundef %174)
  store i32 %175, ptr %9, align 4
  %176 = icmp ne i32 %175, 0
  br i1 %176, label %185, label %177

177:                                              ; preds = %167
  %178 = load ptr, ptr %10, align 8
  %179 = load i64, ptr %12, align 8
  %180 = load i64, ptr %11, align 8
  %181 = sub i64 %179, %180
  %182 = load ptr, ptr %7, align 8
  %183 = call i32 @FT_Stream_ExtractFrame(ptr noundef %178, i64 noundef %181, ptr noundef %182)
  store i32 %183, ptr %9, align 4
  %184 = icmp ne i32 %183, 0
  br i1 %184, label %185, label %186

185:                                              ; preds = %177, %167
  br label %194

186:                                              ; preds = %177
  br label %187

187:                                              ; preds = %186, %159
  br label %191

188:                                              ; preds = %146, %143
  %189 = load ptr, ptr %7, align 8
  store ptr null, ptr %189, align 8
  %190 = load ptr, ptr %8, align 8
  store i64 0, ptr %190, align 8
  br label %191

191:                                              ; preds = %188, %187
  br label %193

192:                                              ; preds = %16, %4
  store i32 6, ptr %9, align 4
  br label %193

193:                                              ; preds = %192, %191
  br label %194

194:                                              ; preds = %193, %185, %57, %51
  %195 = load i32, ptr %9, align 4
  ret i32 %195
}