; Function Attrs: nounwind uwtable
define internal fastcc i32 @cff_index_access_element(ptr noundef readonly %0, i32 noundef %1, ptr noundef %2, ptr nocapture noundef writeonly %3) unnamed_addr #4 {
  %5 = alloca [4 x i8], align 1
  %6 = alloca [4 x i8], align 1
  %.not = icmp eq ptr %0, null
  br i1 %.not, label %95, label %7

7:                                                ; preds = %4
  %8 = getelementptr inbounds i8, ptr %0, i64 20
  %9 = load i32, ptr %8, align 4
  %10 = icmp ugt i32 %9, %1
  br i1 %10, label %11, label %95

11:                                               ; preds = %7
  %12 = load ptr, ptr %0, align 8
  %13 = getelementptr inbounds i8, ptr %0, i64 48
  %14 = load ptr, ptr %13, align 8
  %.not69 = icmp eq ptr %14, null
  br i1 %.not69, label %15, label %55

15:                                               ; preds = %11
  %16 = getelementptr inbounds i8, ptr %0, i64 24
  %17 = load i8, ptr %16, align 8
  %18 = zext i8 %17 to i32
  %19 = mul i32 %18, %1
  %20 = zext i32 %19 to i64
  %21 = getelementptr inbounds i8, ptr %0, i64 8
  %22 = load i64, ptr %21, align 8
  %23 = getelementptr inbounds i8, ptr %0, i64 16
  %24 = load i32, ptr %23, align 8
  %25 = zext i32 %24 to i64
  %26 = add i64 %22, %25
  %27 = add i64 %26, %20
  %28 = tail call i32 @FT_Stream_Seek(ptr noundef %12, i64 noundef %27) #20
  %.not70 = icmp eq i32 %28, 0
  br i1 %.not70, label %29, label %95

29:                                               ; preds = %15
  call void @llvm.lifetime.start.p0(i64 4, ptr nonnull %6)
  %30 = load ptr, ptr %0, align 8
  %31 = load i8, ptr %16, align 8
  %32 = zext i8 %31 to i64
  %33 = call i32 @FT_Stream_Read(ptr noundef %30, ptr noundef nonnull %6, i64 noundef %32) #20
  %.not.i = icmp eq i32 %33, 0
  br i1 %.not.i, label %.preheader.i, label %cff_index_read_offset.exit.thread94

cff_index_read_offset.exit.thread94:              ; preds = %29
  call void @llvm.lifetime.end.p0(i64 4, ptr nonnull %6)
  br label %95

.preheader.i:                                     ; preds = %29
  %34 = load i8, ptr %16, align 8
  %.not13.i = icmp eq i8 %34, 0
  br i1 %.not13.i, label %.thread, label %.lr.ph.preheader.i

.thread:                                          ; preds = %.preheader.i
  call void @llvm.lifetime.end.p0(i64 4, ptr nonnull %6)
  br label %.critedge.thread

.lr.ph.preheader.i:                               ; preds = %.preheader.i
  %wide.trip.count.i = zext i8 %34 to i64
  br label %.lr.ph.i

.lr.ph.i:                                         ; preds = %.lr.ph.i, %.lr.ph.preheader.i
  %indvars.iv.i = phi i64 [ 0, %.lr.ph.preheader.i ], [ %indvars.iv.next.i, %.lr.ph.i ]
  %.01011.i = phi i64 [ 0, %.lr.ph.preheader.i ], [ %39, %.lr.ph.i ]
  %35 = shl i64 %.01011.i, 8
  %36 = getelementptr inbounds [4 x i8], ptr %6, i64 0, i64 %indvars.iv.i
  %37 = load i8, ptr %36, align 1
  %38 = zext i8 %37 to i64
  %39 = or disjoint i64 %35, %38
  %indvars.iv.next.i = add nuw nsw i64 %indvars.iv.i, 1
  %exitcond.not.i = icmp eq i64 %indvars.iv.next.i, %wide.trip.count.i
  br i1 %exitcond.not.i, label %cff_index_read_offset.exit, label %.lr.ph.i, !llvm.loop !34

cff_index_read_offset.exit:                       ; preds = %.lr.ph.i
  call void @llvm.lifetime.end.p0(i64 4, ptr nonnull %6)
  %.not72 = icmp eq i64 %39, 0
  br i1 %.not72, label %.critedge.thread, label %.preheader

.preheader:                                       ; preds = %cff_index_read_offset.exit, %51
  %.0 = phi i32 [ %52, %51 ], [ %1, %cff_index_read_offset.exit ]
  call void @llvm.lifetime.start.p0(i64 4, ptr nonnull %5)
  %40 = load ptr, ptr %0, align 8
  %41 = load i8, ptr %16, align 8
  %42 = zext i8 %41 to i64
  %43 = call i32 @FT_Stream_Read(ptr noundef %40, ptr noundef nonnull %5, i64 noundef %42) #20
  %.not.i77 = icmp eq i32 %43, 0
  br i1 %.not.i77, label %.preheader.i79, label %cff_index_read_offset.exit88.thread

.preheader.i79:                                   ; preds = %.preheader
  %44 = load i8, ptr %16, align 8
  %.not13.i80 = icmp eq i8 %44, 0
  br i1 %.not13.i80, label %cff_index_read_offset.exit88.thread, label %.lr.ph.preheader.i81

.lr.ph.preheader.i81:                             ; preds = %.preheader.i79
  %wide.trip.count.i82 = zext i8 %44 to i64
  br label %.lr.ph.i83

.lr.ph.i83:                                       ; preds = %.lr.ph.i83, %.lr.ph.preheader.i81
  %indvars.iv.i84 = phi i64 [ 0, %.lr.ph.preheader.i81 ], [ %indvars.iv.next.i86, %.lr.ph.i83 ]
  %.01011.i85 = phi i64 [ 0, %.lr.ph.preheader.i81 ], [ %49, %.lr.ph.i83 ]
  %45 = shl i64 %.01011.i85, 8
  %46 = getelementptr inbounds [4 x i8], ptr %5, i64 0, i64 %indvars.iv.i84
  %47 = load i8, ptr %46, align 1
  %48 = zext i8 %47 to i64
  %49 = or disjoint i64 %45, %48
  %indvars.iv.next.i86 = add nuw nsw i64 %indvars.iv.i84, 1
  %exitcond.not.i87 = icmp eq i64 %indvars.iv.next.i86, %wide.trip.count.i82
  br i1 %exitcond.not.i87, label %cff_index_read_offset.exit88, label %.lr.ph.i83, !llvm.loop !34

cff_index_read_offset.exit88.thread:              ; preds = %.preheader, %.preheader.i79
  call void @llvm.lifetime.end.p0(i64 4, ptr nonnull %5)
  br label %51

cff_index_read_offset.exit88:                     ; preds = %.lr.ph.i83
  call void @llvm.lifetime.end.p0(i64 4, ptr nonnull %5)
  %50 = icmp eq i64 %49, 0
  br i1 %50, label %51, label %.critedge

51:                                               ; preds = %cff_index_read_offset.exit88.thread, %cff_index_read_offset.exit88
  %52 = add nuw i32 %.0, 1
  %53 = load i32, ptr %8, align 4
  %54 = icmp ult i32 %52, %53
  br i1 %54, label %.preheader, label %.critedge.thread, !llvm.loop !35

55:                                               ; preds = %11
  %56 = zext i32 %1 to i64
  %57 = getelementptr inbounds i64, ptr %14, i64 %56
  %58 = load i64, ptr %57, align 8
  %.not73 = icmp eq i64 %58, 0
  br i1 %.not73, label %.critedge.thread, label %.preheader109.preheader

.preheader109.preheader:                          ; preds = %55
  %wide.trip.count = zext i32 %9 to i64
  br label %.preheader109

.preheader109:                                    ; preds = %.preheader109.preheader, %62
  %indvars.iv = phi i64 [ %56, %.preheader109.preheader ], [ %indvars.iv.next, %62 ]
  %indvars.iv.next = add nuw nsw i64 %indvars.iv, 1
  %59 = getelementptr inbounds i64, ptr %14, i64 %indvars.iv.next
  %60 = load i64, ptr %59, align 8
  %61 = icmp eq i64 %60, 0
  br i1 %61, label %62, label %.critedge

62:                                               ; preds = %.preheader109
  %exitcond.not = icmp eq i64 %indvars.iv.next, %wide.trip.count
  br i1 %exitcond.not, label %.critedge.thread, label %.preheader109, !llvm.loop !36

.critedge.thread:                                 ; preds = %62, %51, %55, %cff_index_read_offset.exit, %.thread
  %.090.ph = phi i32 [ 0, %.thread ], [ 0, %55 ], [ 0, %cff_index_read_offset.exit ], [ %43, %51 ], [ 0, %62 ]
  %.056.ph = phi i64 [ 0, %.thread ], [ 0, %55 ], [ 0, %cff_index_read_offset.exit ], [ %39, %51 ], [ %58, %62 ]
  %63 = getelementptr inbounds i8, ptr %12, i64 8
  %64 = load i64, ptr %63, align 8
  %.pre125 = add i64 %64, 1
  br label %69

.critedge:                                        ; preds = %.preheader109, %cff_index_read_offset.exit88
  %.056 = phi i64 [ %39, %cff_index_read_offset.exit88 ], [ %58, %.preheader109 ]
  %.054 = phi i64 [ %49, %cff_index_read_offset.exit88 ], [ %60, %.preheader109 ]
  %65 = getelementptr inbounds i8, ptr %12, i64 8
  %66 = load i64, ptr %65, align 8
  %67 = add i64 %66, 1
  %68 = icmp ugt i64 %.054, %67
  br i1 %68, label %.critedge._crit_edge, label %69

.critedge._crit_edge:                             ; preds = %.critedge
  %.phi.trans.insert = getelementptr inbounds i8, ptr %0, i64 32
  %.pre = load i64, ptr %.phi.trans.insert, align 8
  br label %74

69:                                               ; preds = %.critedge.thread, %.critedge
  %.pre-phi = phi i64 [ %.pre125, %.critedge.thread ], [ %67, %.critedge ]
  %.054108 = phi i64 [ 0, %.critedge.thread ], [ %.054, %.critedge ]
  %.056107 = phi i64 [ %.056.ph, %.critedge.thread ], [ %.056, %.critedge ]
  %.090104 = phi i32 [ %.090.ph, %.critedge.thread ], [ 0, %.critedge ]
  %70 = getelementptr inbounds i8, ptr %0, i64 32
  %71 = load i64, ptr %70, align 8
  %72 = sub i64 %.pre-phi, %.054108
  %73 = icmp ugt i64 %71, %72
  br i1 %73, label %74, label %77

74:                                               ; preds = %.critedge._crit_edge, %69
  %.pre-phi126 = phi i64 [ %67, %.critedge._crit_edge ], [ %.pre-phi, %69 ]
  %75 = phi i64 [ %.pre, %.critedge._crit_edge ], [ %71, %69 ]
  %.056106 = phi i64 [ %.056, %.critedge._crit_edge ], [ %.056107, %69 ]
  %.090103 = phi i32 [ 0, %.critedge._crit_edge ], [ %.090104, %69 ]
  %76 = sub i64 %.pre-phi126, %75
  br label %77

77:                                               ; preds = %74, %69
  %.056105 = phi i64 [ %.056106, %74 ], [ %.056107, %69 ]
  %.090102 = phi i32 [ %.090103, %74 ], [ %.090104, %69 ]
  %.155 = phi i64 [ %76, %74 ], [ %.054108, %69 ]
  %.not74 = icmp ne i64 %.056105, 0
  %78 = icmp ugt i64 %.155, %.056105
  %or.cond = select i1 %.not74, i1 %78, i1 false
  br i1 %or.cond, label %79, label %94

79:                                               ; preds = %77
  %80 = sub i64 %.155, %.056105
  store i64 %80, ptr %3, align 8
  %81 = getelementptr inbounds i8, ptr %0, i64 56
  %82 = load ptr, ptr %81, align 8
  %.not75 = icmp eq ptr %82, null
  br i1 %.not75, label %86, label %83

83:                                               ; preds = %79
  %84 = getelementptr inbounds i8, ptr %82, i64 %.056105
  %85 = getelementptr inbounds i8, ptr %84, i64 -1
  store ptr %85, ptr %2, align 8
  br label %95

86:                                               ; preds = %79
  %87 = getelementptr inbounds i8, ptr %0, i64 32
  %88 = load i64, ptr %87, align 8
  %89 = add i64 %.056105, -1
  %90 = add i64 %89, %88
  %91 = call i32 @FT_Stream_Seek(ptr noundef nonnull %12, i64 noundef %90) #20
  %.not76 = icmp eq i32 %91, 0
  br i1 %.not76, label %92, label %95

92:                                               ; preds = %86
  %93 = call i32 @FT_Stream_ExtractFrame(ptr noundef nonnull %12, i64 noundef %80, ptr noundef %2) #20
  br label %95

94:                                               ; preds = %77
  store ptr null, ptr %2, align 8
  store i64 0, ptr %3, align 8
  br label %95

95:                                               ; preds = %4, %7, %cff_index_read_offset.exit.thread94, %92, %83, %94, %86, %15
  %.191 = phi i32 [ %93, %92 ], [ %91, %86 ], [ %.090102, %83 ], [ %.090102, %94 ], [ %28, %15 ], [ %33, %cff_index_read_offset.exit.thread94 ], [ 6, %7 ], [ 6, %4 ]
  ret i32 %.191
}